; Function Attrs: mustprogress uwtable
define hidden noundef zeroext i1 @_ZN18expr_pattern_match22match_quantifier_indexEP10quantifierR10ref_vectorI3app11ast_managerERj(ptr noundef nonnull align 8 dereferenceable(64) %0, ptr noundef readonly captures(none) %1, ptr noundef nonnull align 8 dereferenceable(16) %2, ptr noundef nonnull writeonly align 4 captures(none) dereferenceable(4) %3) local_unnamed_addr #4 align 2 {
  %5 = alloca i32, align 4
  %6 = getelementptr inbounds nuw i8, ptr %0, i64 40
  %7 = load ptr, ptr %6, align 8, !tbaa !8
  %8 = icmp eq ptr %7, null
  br i1 %8, label %_ZNK6vectorIP4exprLb0EjE5emptyEv.exit.thread, label %_ZNK6vectorIP4exprLb0EjE5emptyEv.exit

_ZNK6vectorIP4exprLb0EjE5emptyEv.exit:            ; preds = %4
  %9 = getelementptr inbounds i8, ptr %7, i64 -4
  %10 = load i32, ptr %9, align 4, !tbaa !12
  %11 = icmp eq i32 %10, 0
  br i1 %11, label %_ZNK6vectorIP4exprLb0EjE5emptyEv.exit.thread, label %12

12:                                               ; preds = %_ZNK6vectorIP4exprLb0EjE5emptyEv.exit
  %13 = getelementptr inbounds nuw i8, ptr %1, i64 24
  %14 = load ptr, ptr %13, align 8, !tbaa !14
  store ptr %14, ptr %7, align 8, !tbaa !24
  %15 = getelementptr inbounds nuw i8, ptr %0, i64 16
  br label %16

16:                                               ; preds = %.critedge, %12
  %.011 = phi i32 [ 0, %12 ], [ %25, %.critedge ]
  %17 = load ptr, ptr %15, align 8, !tbaa !25
  %18 = icmp eq ptr %17, null
  br i1 %18, label %_ZNK15ref_vector_coreI10quantifier19ref_manager_wrapperIS0_11ast_managerEE4sizeEv.exit, label %19

19:                                               ; preds = %16
  %20 = getelementptr inbounds i8, ptr %17, i64 -4
  %21 = load i32, ptr %20, align 4, !tbaa !12
  br label %_ZNK15ref_vector_coreI10quantifier19ref_manager_wrapperIS0_11ast_managerEE4sizeEv.exit

_ZNK15ref_vector_coreI10quantifier19ref_manager_wrapperIS0_11ast_managerEE4sizeEv.exit: ; preds = %16, %19
  %.0.i.i = phi i32 [ %21, %19 ], [ 0, %16 ]
  %.not = icmp ult i32 %.011, %.0.i.i
  br i1 %.not, label %22, label %_ZNK6vectorIP4exprLb0EjE5emptyEv.exit.thread

22:                                               ; preds = %_ZNK15ref_vector_coreI10quantifier19ref_manager_wrapperIS0_11ast_managerEE4sizeEv.exit
  call void @llvm.lifetime.start.p0(i64 4, ptr nonnull %5) #21
  %23 = call noundef zeroext i1 @_ZN18expr_pattern_match16match_quantifierEjP10quantifierR10ref_vectorI3app11ast_managerERj(ptr noundef nonnull align 8 dereferenceable(64) %0, i32 noundef %.011, ptr noundef nonnull %1, ptr noundef nonnull align 8 dereferenceable(16) %2, ptr noundef nonnull align 4 dereferenceable(4) %5)
  br i1 %23, label %24, label %.critedge

24:                                               ; preds = %22
  store i32 %.011, ptr %3, align 4, !tbaa !12
  call void @llvm.lifetime.end.p0(i64 4, ptr nonnull %5) #21
  br label %_ZNK6vectorIP4exprLb0EjE5emptyEv.exit.thread

.critedge:                                        ; preds = %22
  call void @llvm.lifetime.end.p0(i64 4, ptr nonnull %5) #21
  %25 = add nuw i32 %.011, 1
  br label %16, !llvm.loop !134

_ZNK6vectorIP4exprLb0EjE5emptyEv.exit.thread:     ; preds = %_ZNK15ref_vector_coreI10quantifier19ref_manager_wrapperIS0_11ast_managerEE4sizeEv.exit, %24, %4, %_ZNK6vectorIP4exprLb0EjE5emptyEv.exit
  %.012 = phi i1 [ false, %_ZNK6vectorIP4exprLb0EjE5emptyEv.exit ], [ false, %4 ], [ true, %24 ], [ false, %_ZNK15ref_vector_coreI10quantifier19ref_manager_wrapperIS0_11ast_managerEE4sizeEv.exit ]
  ret i1 %.012
}